; Function Attrs: mustprogress nofree norecurse nosync nounwind willreturn memory(argmem: write) uwtable
define range(i32 -173, 2) i32 @wolfSSL_set_read_fd(ptr noundef %0, i32 noundef %1) local_unnamed_addr #5 {
  %3 = icmp eq ptr %0, null
  br i1 %3, label %7, label %4

4:                                                ; preds = %2
  %5 = getelementptr inbounds nuw i8, ptr %0, i64 668
  store i32 %1, ptr %5, align 4, !tbaa !117
  %6 = getelementptr inbounds nuw i8, ptr %0, i64 136
  store ptr %5, ptr %6, align 8, !tbaa !118
  br label %7

7:                                                ; preds = %2, %4
  %.0 = phi i32 [ 1, %4 ], [ -173, %2 ]
  ret i32 %.0
}